; Function Attrs: mustprogress uwtable
define void @_ZNK6icu_756number15FormattedNumber12toTempStringER10UErrorCode(ptr noalias sret(%"class.icu_75::UnicodeString") align 8 %agg.result, ptr nocapture noundef nonnull readonly align 8 dereferenceable(20) %this, ptr noundef nonnull align 4 dereferenceable(4) %status) unnamed_addr #1 align 2 personality ptr @__gxx_personality_v0 {
entry:
  %0 = load i32, ptr %status, align 4
  %cmp.i = icmp slt i32 %0, 1
  br i1 %cmp.i, label %if.end, label %if.then

if.then:                                          ; preds = %entry
  store ptr getelementptr inbounds ({ [13 x ptr] }, ptr @_ZTVN6icu_7513UnicodeStringE, i64 0, i32 0, i64 2), ptr %agg.result, align 8, !alias.scope !10
  %fUnion2.i.i = getelementptr inbounds i8, ptr %agg.result, i64 8
  store i16 2, ptr %fUnion2.i.i, align 8, !alias.scope !10
  invoke void @_ZN6icu_7513UnicodeString10setToBogusEv(ptr noundef nonnull align 8 dereferenceable(64) %agg.result)
          to label %return unwind label %lpad.i

common.resume:                                    ; preds = %lpad.i4, %lpad.i
  %common.resume.op = phi { ptr, i32 } [ %1, %lpad.i ], [ %4, %lpad.i4 ]
  tail call void @_ZN6icu_7513UnicodeStringD1Ev(ptr noundef nonnull align 8 dereferenceable(64) %agg.result) #10
  resume { ptr, i32 } %common.resume.op

lpad.i:                                           ; preds = %if.then
  %1 = landingpad { ptr, i32 }
          cleanup
  br label %common.resume

if.end:                                           ; preds = %entry
  %fData = getelementptr inbounds i8, ptr %this, i64 8
  %2 = load ptr, ptr %fData, align 8
  %cmp = icmp eq ptr %2, null
  br i1 %cmp, label %if.then2, label %if.end3

if.then2:                                         ; preds = %if.end
  %fErrorCode = getelementptr inbounds i8, ptr %this, i64 16
  %3 = load i32, ptr %fErrorCode, align 8
  store i32 %3, ptr %status, align 4
  store ptr getelementptr inbounds ({ [13 x ptr] }, ptr @_ZTVN6icu_7513UnicodeStringE, i64 0, i32 0, i64 2), ptr %agg.result, align 8, !alias.scope !13
  %fUnion2.i.i3 = getelementptr inbounds i8, ptr %agg.result, i64 8
  store i16 2, ptr %fUnion2.i.i3, align 8, !alias.scope !13
  invoke void @_ZN6icu_7513UnicodeString10setToBogusEv(ptr noundef nonnull align 8 dereferenceable(64) %agg.result)
          to label %return unwind label %lpad.i4

lpad.i4:                                          ; preds = %if.then2
  %4 = landingpad { ptr, i32 }
          cleanup
  br label %common.resume

if.end3:                                          ; preds = %if.end
  %vtable = load ptr, ptr %2, align 8
  %vfn = getelementptr inbounds i8, ptr %vtable, i64 24
  %5 = load ptr, ptr %vfn, align 8
  tail call void %5(ptr sret(%"class.icu_75::UnicodeString") align 8 %agg.result, ptr noundef nonnull align 8 dereferenceable(300) %2, ptr noundef nonnull align 4 dereferenceable(4) %status)
  br label %return

return:                                           ; preds = %if.then2, %if.then, %if.end3
  ret void
}